target datalayout = "e-m:e-p270:32:32-p271:32:32-p272:64:64-i64:64-i128:128-f80:128-n8:16:32:64-S128"
target triple = "x86_64-pc-linux-gnu"

%"class.llvm::SSAUpdater" = type { ptr, ptr, %"class.std::__cxx11::basic_string", ptr }
%"class.std::__cxx11::basic_string" = type { %"struct.std::__cxx11::basic_string<char>::_Alloc_hider", i64, %union.anon }
%"struct.std::__cxx11::basic_string<char>::_Alloc_hider" = type { ptr }
%union.anon = type { i64, [8 x i8] }
%"class.llvm::DenseMap" = type <{ ptr, i32, i32, i32, [4 x i8] }>
%"struct.llvm::detail::DenseMapPair.83" = type { %"struct.std::pair" }
%"struct.std::pair" = type { ptr, ptr }
%"class.llvm::ilist_detail::node_base_parent.3" = type { ptr }

; Function Attrs: mustprogress nounwind uwtable
define linkonce_odr hidden noundef i32 @_ZN4llvm12DenseMapInfoIPNS_10BasicBlockEvE12getHashValueEPKS1_(ptr noundef %0) #0 comdat align 2 {
  %2 = alloca ptr, align 8
  store ptr %0, ptr %2, align 8
  %3 = load ptr, ptr %2, align 8
  %4 = ptrtoint ptr %3 to i64
  %5 = trunc i64 %4 to i32
  %6 = lshr i32 %5, 4
  %7 = load ptr, ptr %2, align 8
  %8 = ptrtoint ptr %7 to i64
  %9 = trunc i64 %8 to i32
  %10 = lshr i32 %9, 9
  %11 = xor i32 %6, %10
  ret i32 %11
}

; Function Attrs: mustprogress nounwind uwtable
define linkonce_odr hidden noundef ptr @_ZN4llvm12DenseMapInfoIPNS_10BasicBlockEvE11getEmptyKeyEv() #0 comdat align 2 {
  %1 = alloca i64, align 8
  store i64 -1, ptr %1, align 8
  %2 = load i64, ptr %1, align 8
  %3 = shl i64 %2, 12
  store i64 %3, ptr %1, align 8
  %4 = load i64, ptr %1, align 8
  %5 = inttoptr i64 %4 to ptr
  ret ptr %5
}

; Function Attrs: mustprogress nounwind uwtable
define linkonce_odr hidden noundef i32 @_ZNK4llvm8DenseMapIPNS_10BasicBlockEPNS_5ValueENS_12DenseMapInfoIS2_vEENS_6detail12DenseMapPairIS2_S4_EEE13getNumBucketsEv(ptr noundef nonnull align 8 dereferenceable(20) %0) #0 comdat align 2 {
  %2 = alloca ptr, align 8
  store ptr %0, ptr %2, align 8
  %3 = load ptr, ptr %2, align 8
  %4 = getelementptr inbounds nuw %"class.llvm::DenseMap", ptr %3, i32 0, i32 3
  %5 = load i32, ptr %4, align 8
  ret i32 %5
}

; Function Attrs: mustprogress nounwind uwtable
define linkonce_odr hidden noundef ptr @_ZNK4llvm8DenseMapIPNS_10BasicBlockEPNS_5ValueENS_12DenseMapInfoIS2_vEENS_6detail12DenseMapPairIS2_S4_EEE10getBucketsEv(ptr noundef nonnull align 8 dereferenceable(20) %0) #0 comdat align 2 {
  %2 = alloca ptr, align 8
  store ptr %0, ptr %2, align 8
  %3 = load ptr, ptr %2, align 8
  %4 = getelementptr inbounds nuw %"class.llvm::DenseMap", ptr %3, i32 0, i32 0
  %5 = load ptr, ptr %4, align 8
  ret ptr %5
}

; Function Attrs: mustprogress nounwind uwtable
define linkonce_odr hidden noundef zeroext i1 @_ZN4llvm12DenseMapInfoIPNS_10BasicBlockEvE7isEqualEPKS1_S5_(ptr noundef %0, ptr noundef %1) #0 comdat align 2 {
  %3 = alloca ptr, align 8
  %4 = alloca ptr, align 8
  store ptr %0, ptr %3, align 8
  store ptr %1, ptr %4, align 8
  %5 = load ptr, ptr %3, align 8
  %6 = load ptr, ptr %4, align 8
  %7 = icmp eq ptr %5, %6
  ret i1 %7
}

; Function Attrs: mustprogress nounwind uwtable
define linkonce_odr hidden noundef nonnull align 8 dereferenceable(8) ptr @_ZN4llvm6detail12DenseMapPairIPNS_10BasicBlockEPNS_5ValueEE8getFirstEv(ptr noundef nonnull align 8 dereferenceable(16) %0) #0 comdat align 2 {
  %2 = alloca ptr, align 8
  store ptr %0, ptr %2, align 8
  %3 = load ptr, ptr %2, align 8
  %4 = getelementptr inbounds nuw %"struct.std::pair", ptr %3, i32 0, i32 0
  ret ptr %4
}

; Function Attrs: mustprogress nounwind uwtable
define linkonce_odr hidden noundef i32 @_ZN4llvm12DenseMapBaseINS_8DenseMapIPNS_10BasicBlockEPNS_5ValueENS_12DenseMapInfoIS3_vEENS_6detail12DenseMapPairIS3_S5_EEEES3_S5_S7_SA_E12getHashValueIPKS2_EEjRKT_(ptr noundef nonnull align 8 dereferenceable(8) %0) #0 comdat align 2 {
  %2 = alloca ptr, align 8
  store ptr %0, ptr %2, align 8
  %3 = load ptr, ptr %2, align 8
  %4 = load ptr, ptr %3, align 8
  %5 = call noundef i32 @_ZN4llvm12DenseMapInfoIPNS_10BasicBlockEvE12getHashValueEPKS1_(ptr noundef %4)
  ret i32 %5
}

; Function Attrs: mustprogress nounwind uwtable
define linkonce_odr hidden noundef ptr @_ZN4llvm12DenseMapBaseINS_8DenseMapIPNS_10BasicBlockEPNS_5ValueENS_12DenseMapInfoIS3_vEENS_6detail12DenseMapPairIS3_S5_EEEES3_S5_S7_SA_E11getEmptyKeyEv() #0 comdat align 2 {
  %1 = call noundef ptr @_ZN4llvm12DenseMapInfoIPNS_10BasicBlockEvE11getEmptyKeyEv()
  ret ptr %1
}

; Function Attrs: mustprogress nounwind uwtable
define linkonce_odr hidden noundef i32 @_ZNK4llvm12DenseMapBaseINS_8DenseMapIPNS_10BasicBlockEPNS_5ValueENS_12DenseMapInfoIS3_vEENS_6detail12DenseMapPairIS3_S5_EEEES3_S5_S7_SA_E13getNumBucketsEv(ptr noundef nonnull align 1 dereferenceable(1) %0) #0 comdat align 2 {
  %2 = alloca ptr, align 8
  store ptr %0, ptr %2, align 8
  %3 = load ptr, ptr %2, align 8
  %4 = call noundef i32 @_ZNK4llvm8DenseMapIPNS_10BasicBlockEPNS_5ValueENS_12DenseMapInfoIS2_vEENS_6detail12DenseMapPairIS2_S4_EEE13getNumBucketsEv(ptr noundef nonnull align 8 dereferenceable(20) %3)
  ret i32 %4
}

; Function Attrs: mustprogress nounwind uwtable
define linkonce_odr hidden noundef ptr @_ZN4llvm12DenseMapBaseINS_8DenseMapIPNS_10BasicBlockEPNS_5ValueENS_12DenseMapInfoIS3_vEENS_6detail12DenseMapPairIS3_S5_EEEES3_S5_S7_SA_E10getBucketsEv(ptr noundef nonnull align 1 dereferenceable(1) %0) #0 comdat align 2 {
  %2 = alloca ptr, align 8
  store ptr %0, ptr %2, align 8
  %3 = load ptr, ptr %2, align 8
  %4 = call noundef ptr @_ZNK4llvm8DenseMapIPNS_10BasicBlockEPNS_5ValueENS_12DenseMapInfoIS2_vEENS_6detail12DenseMapPairIS2_S4_EEE10getBucketsEv(ptr noundef nonnull align 8 dereferenceable(20) %3)
  ret ptr %4
}

; Function Attrs: mustprogress nounwind uwtable
define linkonce_odr hidden noundef ptr @_ZN4llvm12DenseMapBaseINS_8DenseMapIPNS_10BasicBlockEPNS_5ValueENS_12DenseMapInfoIS3_vEENS_6detail12DenseMapPairIS3_S5_EEEES3_S5_S7_SA_E6doFindIPKS2_EEPSA_RKT_(ptr noundef nonnull align 1 dereferenceable(1) %0, ptr noundef nonnull align 8 dereferenceable(8) %1) #0 comdat align 2 {
  %3 = alloca ptr, align 8
  %4 = alloca ptr, align 8
  %5 = alloca ptr, align 8
  %6 = alloca ptr, align 8
  %7 = alloca i32, align 4
  %8 = alloca ptr, align 8
  %9 = alloca i32, align 4
  %10 = alloca i32, align 4
  %11 = alloca ptr, align 8
  store ptr %0, ptr %4, align 8
  store ptr %1, ptr %5, align 8
  %12 = load ptr, ptr %4, align 8
  %13 = call noundef ptr @_ZN4llvm12DenseMapBaseINS_8DenseMapIPNS_10BasicBlockEPNS_5ValueENS_12DenseMapInfoIS3_vEENS_6detail12DenseMapPairIS3_S5_EEEES3_S5_S7_SA_E10getBucketsEv(ptr noundef nonnull align 1 dereferenceable(1) %12)
  store ptr %13, ptr %6, align 8
  %14 = call noundef i32 @_ZNK4llvm12DenseMapBaseINS_8DenseMapIPNS_10BasicBlockEPNS_5ValueENS_12DenseMapInfoIS3_vEENS_6detail12DenseMapPairIS3_S5_EEEES3_S5_S7_SA_E13getNumBucketsEv(ptr noundef nonnull align 1 dereferenceable(1) %12)
  store i32 %14, ptr %7, align 4
  %15 = load i32, ptr %7, align 4
  %16 = icmp eq i32 %15, 0
  br i1 %16, label %17, label %18

17:                                               ; preds = %2
  store ptr null, ptr %3, align 8
  br label %54

18:                                               ; preds = %2
  %19 = call noundef ptr @_ZN4llvm12DenseMapBaseINS_8DenseMapIPNS_10BasicBlockEPNS_5ValueENS_12DenseMapInfoIS3_vEENS_6detail12DenseMapPairIS3_S5_EEEES3_S5_S7_SA_E11getEmptyKeyEv()
  store ptr %19, ptr %8, align 8
  %20 = load ptr, ptr %5, align 8
  %21 = call noundef i32 @_ZN4llvm12DenseMapBaseINS_8DenseMapIPNS_10BasicBlockEPNS_5ValueENS_12DenseMapInfoIS3_vEENS_6detail12DenseMapPairIS3_S5_EEEES3_S5_S7_SA_E12getHashValueIPKS2_EEjRKT_(ptr noundef nonnull align 8 dereferenceable(8) %20)
  %22 = load i32, ptr %7, align 4
  %23 = sub i32 %22, 1
  %24 = and i32 %21, %23
  store i32 %24, ptr %9, align 4
  store i32 1, ptr %10, align 4
  br label %25

25:                                               ; preds = %45, %18
  %26 = load ptr, ptr %6, align 8
  %27 = load i32, ptr %9, align 4
  %28 = zext i32 %27 to i64
  %29 = getelementptr inbounds %"struct.llvm::detail::DenseMapPair.83", ptr %26, i64 %28
  store ptr %29, ptr %11, align 8
  %30 = load ptr, ptr %5, align 8
  %31 = load ptr, ptr %30, align 8
  %32 = load ptr, ptr %11, align 8
  %33 = call noundef nonnull align 8 dereferenceable(8) ptr @_ZN4llvm6detail12DenseMapPairIPNS_10BasicBlockEPNS_5ValueEE8getFirstEv(ptr noundef nonnull align 8 dereferenceable(16) %32)
  %34 = load ptr, ptr %33, align 8
  %35 = call noundef zeroext i1 @_ZN4llvm12DenseMapInfoIPNS_10BasicBlockEvE7isEqualEPKS1_S5_(ptr noundef %31, ptr noundef %34)
  br i1 %35, label %36, label %38

36:                                               ; preds = %25
  %37 = load ptr, ptr %11, align 8
  store ptr %37, ptr %3, align 8
  br label %54

38:                                               ; preds = %25
  %39 = load ptr, ptr %11, align 8
  %40 = call noundef nonnull align 8 dereferenceable(8) ptr @_ZN4llvm6detail12DenseMapPairIPNS_10BasicBlockEPNS_5ValueEE8getFirstEv(ptr noundef nonnull align 8 dereferenceable(16) %39)
  %41 = load ptr, ptr %40, align 8
  %42 = load ptr, ptr %8, align 8
  %43 = call noundef zeroext i1 @_ZN4llvm12DenseMapInfoIPNS_10BasicBlockEvE7isEqualEPKS1_S5_(ptr noundef %41, ptr noundef %42)
  br i1 %43, label %44, label %45

44:                                               ; preds = %38
  store ptr null, ptr %3, align 8
  br label %54

45:                                               ; preds = %38
  %46 = load i32, ptr %10, align 4
  %47 = add i32 %46, 1
  store i32 %47, ptr %10, align 4
  %48 = load i32, ptr %9, align 4
  %49 = add i32 %48, %46
  store i32 %49, ptr %9, align 4
  %50 = load i32, ptr %7, align 4
  %51 = sub i32 %50, 1
  %52 = load i32, ptr %9, align 4
  %53 = and i32 %52, %51
  store i32 %53, ptr %9, align 4
  br label %25, !llvm.loop !21

54:                                               ; preds = %44, %36, %17
  %55 = load ptr, ptr %3, align 8
  ret ptr %55
}

; Function Attrs: mustprogress nounwind uwtable
define linkonce_odr hidden noundef ptr @_ZNK4llvm12DenseMapBaseINS_8DenseMapIPNS_10BasicBlockEPNS_5ValueENS_12DenseMapInfoIS3_vEENS_6detail12DenseMapPairIS3_S5_EEEES3_S5_S7_SA_E6doFindIPKS2_EEPKSA_RKT_(ptr noundef nonnull align 1 dereferenceable(1) %0, ptr noundef nonnull align 8 dereferenceable(8) %1) #0 comdat align 2 {
  %3 = alloca ptr, align 8
  %4 = alloca ptr, align 8
  store ptr %0, ptr %3, align 8
  store ptr %1, ptr %4, align 8
  %5 = load ptr, ptr %3, align 8
  %6 = load ptr, ptr %4, align 8
  %7 = call noundef ptr @_ZN4llvm12DenseMapBaseINS_8DenseMapIPNS_10BasicBlockEPNS_5ValueENS_12DenseMapInfoIS3_vEENS_6detail12DenseMapPairIS3_S5_EEEES3_S5_S7_SA_E6doFindIPKS2_EEPSA_RKT_(ptr noundef nonnull align 1 dereferenceable(1) %5, ptr noundef nonnull align 8 dereferenceable(8) %6)
  ret ptr %7
}

; Function Attrs: mustprogress nounwind uwtable
define linkonce_odr hidden noundef zeroext i1 @_ZNK4llvm12DenseMapBaseINS_8DenseMapIPNS_10BasicBlockEPNS_5ValueENS_12DenseMapInfoIS3_vEENS_6detail12DenseMapPairIS3_S5_EEEES3_S5_S7_SA_E8containsEPKS2_(ptr noundef nonnull align 1 dereferenceable(1) %0, ptr noundef %1) #0 comdat align 2 {
  %3 = alloca ptr, align 8
  %4 = alloca ptr, align 8
  store ptr %0, ptr %3, align 8
  store ptr %1, ptr %4, align 8
  %5 = load ptr, ptr %3, align 8
  %6 = call noundef ptr @_ZNK4llvm12DenseMapBaseINS_8DenseMapIPNS_10BasicBlockEPNS_5ValueENS_12DenseMapInfoIS3_vEENS_6detail12DenseMapPairIS3_S5_EEEES3_S5_S7_SA_E6doFindIPKS2_EEPKSA_RKT_(ptr noundef nonnull align 1 dereferenceable(1) %5, ptr noundef nonnull align 8 dereferenceable(8) %4)
  %7 = icmp ne ptr %6, null
  ret i1 %7
}

; Function Attrs: mustprogress nounwind uwtable
define linkonce_odr hidden noundef i32 @_ZNK4llvm12DenseMapBaseINS_8DenseMapIPNS_10BasicBlockEPNS_5ValueENS_12DenseMapInfoIS3_vEENS_6detail12DenseMapPairIS3_S5_EEEES3_S5_S7_SA_E5countEPKS2_(ptr noundef nonnull align 1 dereferenceable(1) %0, ptr noundef %1) #0 comdat align 2 {
  %3 = alloca ptr, align 8
  %4 = alloca ptr, align 8
  store ptr %0, ptr %3, align 8
  store ptr %1, ptr %4, align 8
  %5 = load ptr, ptr %3, align 8
  %6 = load ptr, ptr %4, align 8
  %7 = call noundef zeroext i1 @_ZNK4llvm12DenseMapBaseINS_8DenseMapIPNS_10BasicBlockEPNS_5ValueENS_12DenseMapInfoIS3_vEENS_6detail12DenseMapPairIS3_S5_EEEES3_S5_S7_SA_E8containsEPKS2_(ptr noundef nonnull align 1 dereferenceable(1) %5, ptr noundef %6)
  %8 = select i1 %7, i32 1, i32 0
  ret i32 %8
}

; Function Attrs: mustprogress nounwind uwtable
define internal noundef nonnull align 8 dereferenceable(20) ptr @_ZL16getAvailableValsPv(ptr noundef %0) #0 {
  %2 = alloca ptr, align 8
  store ptr %0, ptr %2, align 8
  %3 = load ptr, ptr %2, align 8
  ret ptr %3
}

; Function Attrs: mustprogress nounwind uwtable
define linkonce_odr hidden noundef ptr @_ZN4llvm12ilist_detail16node_base_parentINS_10BasicBlockEE17getNodeBaseParentEv(ptr noundef nonnull align 8 dereferenceable(8) %0) #0 comdat align 2 {
  %2 = alloca ptr, align 8
  store ptr %0, ptr %2, align 8
  %3 = load ptr, ptr %2, align 8
  %4 = getelementptr inbounds nuw %"class.llvm::ilist_detail::node_base_parent.3", ptr %3, i32 0, i32 0
  %5 = load ptr, ptr %4, align 8
  ret ptr %5
}

; Function Attrs: mustprogress nounwind uwtable
define dso_local noundef ptr @_ZN4llvm10SSAUpdater20GetValueAtEndOfBlockEPNS_10BasicBlockE(ptr noundef nonnull align 8 dereferenceable(56) %0, ptr noundef %1) #0 align 2 {
  %3 = alloca ptr, align 8
  %4 = alloca ptr, align 8
  %5 = alloca ptr, align 8
  store ptr %0, ptr %3, align 8
  store ptr %1, ptr %4, align 8
  %6 = load ptr, ptr %3, align 8
  %7 = load ptr, ptr %4, align 8
  %8 = call noundef ptr @_ZN4llvm10SSAUpdater28GetValueAtEndOfBlockInternalEPNS_10BasicBlockE(ptr noundef nonnull align 8 dereferenceable(56) %6, ptr noundef %7)
  store ptr %8, ptr %5, align 8
  %9 = load ptr, ptr %5, align 8
  ret ptr %9
}

; Function Attrs: mustprogress nounwind uwtable
define dso_local noundef zeroext i1 @_ZNK4llvm10SSAUpdater16HasValueForBlockEPNS_10BasicBlockE(ptr noundef nonnull align 8 dereferenceable(56) %0, ptr noundef %1) #0 align 2 {
  %3 = alloca ptr, align 8
  %4 = alloca ptr, align 8
  store ptr %0, ptr %3, align 8
  store ptr %1, ptr %4, align 8
  %5 = load ptr, ptr %3, align 8
  %6 = getelementptr inbounds nuw %"class.llvm::SSAUpdater", ptr %5, i32 0, i32 0
  %7 = load ptr, ptr %6, align 8
  %8 = call noundef nonnull align 8 dereferenceable(20) ptr @_ZL16getAvailableValsPv(ptr noundef %7)
  %9 = load ptr, ptr %4, align 8
  %10 = call noundef i32 @_ZNK4llvm12DenseMapBaseINS_8DenseMapIPNS_10BasicBlockEPNS_5ValueENS_12DenseMapInfoIS3_vEENS_6detail12DenseMapPairIS3_S5_EEEES3_S5_S7_SA_E5countEPKS2_(ptr noundef nonnull align 1 dereferenceable(1) %8, ptr noundef %9)
  %11 = icmp ne i32 %10, 0
  ret i1 %11
}

; Function Attrs: mustprogress nounwind uwtable
define linkonce_odr hidden noundef ptr @_ZN4llvm12ilist_detail18node_parent_accessINS_15ilist_node_implINS0_12node_optionsINS_11InstructionELb0ELb0EvLb1ENS_10BasicBlockEEEEES5_E9getParentEv(ptr noundef nonnull align 1 dereferenceable(1) %0) #0 comdat align 2 {
  %2 = alloca ptr, align 8
  store ptr %0, ptr %2, align 8
  %3 = load ptr, ptr %2, align 8
  %4 = getelementptr inbounds i8, ptr %3, i64 16
  %5 = call noundef ptr @_ZN4llvm12ilist_detail16node_base_parentINS_10BasicBlockEE17getNodeBaseParentEv(ptr noundef nonnull align 8 dereferenceable(8) %4)
  ret ptr %5
}

; Function Attrs: mustprogress nounwind uwtable
define dso_local void @_ZN4llvm10SSAUpdater16UpdateDebugValueEPNS_11InstructionEPNS_12DbgValueInstE(ptr noundef nonnull align 8 dereferenceable(56) %0, ptr noundef %1, ptr noundef %2) #0 align 2 {
  %4 = alloca ptr, align 8
  %5 = alloca ptr, align 8
  %6 = alloca ptr, align 8
  %7 = alloca ptr, align 8
  %8 = alloca ptr, align 8
  store ptr %0, ptr %4, align 8
  store ptr %1, ptr %5, align 8
  store ptr %2, ptr %6, align 8
  %9 = load ptr, ptr %4, align 8
  %10 = load ptr, ptr %6, align 8
  %11 = getelementptr inbounds i8, ptr %10, i64 24
  %12 = call noundef ptr @_ZN4llvm12ilist_detail18node_parent_accessINS_15ilist_node_implINS0_12node_optionsINS_11InstructionELb0ELb0EvLb1ENS_10BasicBlockEEEEES5_E9getParentEv(ptr noundef nonnull align 1 dereferenceable(1) %11)
  store ptr %12, ptr %7, align 8
  %13 = load ptr, ptr %7, align 8
  %14 = call noundef zeroext i1 @_ZNK4llvm10SSAUpdater16HasValueForBlockEPNS_10BasicBlockE(ptr noundef nonnull align 8 dereferenceable(56) %9, ptr noundef %13)
  br i1 %14, label %15, label %21

15:                                               ; preds = %3
  %16 = load ptr, ptr %7, align 8
  %17 = call noundef ptr @_ZN4llvm10SSAUpdater20GetValueAtEndOfBlockEPNS_10BasicBlockE(ptr noundef nonnull align 8 dereferenceable(56) %9, ptr noundef %16)
  store ptr %17, ptr %8, align 8
  %18 = load ptr, ptr %6, align 8
  %19 = load ptr, ptr %5, align 8
  %20 = load ptr, ptr %8, align 8
  call void @_ZN4llvm20DbgVariableIntrinsic25replaceVariableLocationOpEPNS_5ValueES2_b(ptr noundef nonnull align 8 dereferenceable(88) %18, ptr noundef %19, ptr noundef %20, i1 noundef zeroext false)
  br label %23

21:                                               ; preds = %3
  %22 = load ptr, ptr %6, align 8
  call void @_ZN4llvm20DbgVariableIntrinsic15setKillLocationEv(ptr noundef nonnull align 8 dereferenceable(88) %22)
  br label %23

23:                                               ; preds = %21, %15
  ret void
}