; Function Attrs: mustprogress nounwind uwtable
define dso_local void @_ZN4llvm10SSAUpdater16UpdateDebugValueEPNS_11InstructionEPNS_12DbgValueInstE(ptr noundef nonnull align 8 dereferenceable(56) %0, ptr noundef %1, ptr noundef %2) local_unnamed_addr #0 align 2 {
  %4 = getelementptr inbounds i8, ptr %2, i64 40
  %5 = load ptr, ptr %4, align 8
  %6 = load ptr, ptr %0, align 8
  %7 = load ptr, ptr %6, align 8
  %8 = getelementptr inbounds nuw i8, ptr %6, i64 16
  %9 = load i32, ptr %8, align 8
  %10 = icmp eq i32 %9, 0
  br i1 %10, label %_ZNK4llvm10SSAUpdater16HasValueForBlockEPNS_10BasicBlockE.exit, label %11

11:                                               ; preds = %3
  %12 = ptrtoint ptr %5 to i64
  %13 = trunc i64 %12 to i32
  %14 = lshr i32 %13, 4
  %15 = lshr i32 %13, 9
  %16 = xor i32 %14, %15
  %17 = add i32 %9, -1
  %.01618.i.i.i.i.i = and i32 %17, %16
  %18 = zext nneg i32 %.01618.i.i.i.i.i to i64
  %19 = getelementptr inbounds %"struct.llvm::detail::DenseMapPair.83", ptr %7, i64 %18
  %20 = load ptr, ptr %19, align 8
  %21 = icmp eq ptr %5, %20
  br i1 %21, label %.loopexit, label %.lr.ph.i.i.i.i.i

.lr.ph.i.i.i.i.i:                                 ; preds = %11, %23
  %22 = phi ptr [ %28, %23 ], [ %20, %11 ]
  %.01620.i.i.i.i.i = phi i32 [ %.016.i.i.i.i.i, %23 ], [ %.01618.i.i.i.i.i, %11 ]
  %.01519.i.i.i.i.i = phi i32 [ %24, %23 ], [ 1, %11 ]
  %.not.i.i.not.i = icmp eq ptr %22, inttoptr (i64 -4096 to ptr)
  br i1 %.not.i.i.not.i, label %_ZNK4llvm10SSAUpdater16HasValueForBlockEPNS_10BasicBlockE.exit, label %23

23:                                               ; preds = %.lr.ph.i.i.i.i.i
  %24 = add i32 %.01519.i.i.i.i.i, 1
  %25 = add i32 %.01519.i.i.i.i.i, %.01620.i.i.i.i.i
  %.016.i.i.i.i.i = and i32 %25, %17
  %26 = zext i32 %.016.i.i.i.i.i to i64
  %27 = getelementptr inbounds %"struct.llvm::detail::DenseMapPair.83", ptr %7, i64 %26
  %28 = load ptr, ptr %27, align 8
  %29 = icmp eq ptr %5, %28
  br i1 %29, label %.loopexit, label %.lr.ph.i.i.i.i.i, !llvm.loop !6

.loopexit:                                        ; preds = %23, %11
  %30 = tail call noundef ptr @_ZN4llvm10SSAUpdater28GetValueAtEndOfBlockInternalEPNS_10BasicBlockE(ptr noundef nonnull align 8 dereferenceable(56) %0, ptr noundef %5)
  tail call void @_ZN4llvm20DbgVariableIntrinsic25replaceVariableLocationOpEPNS_5ValueES2_b(ptr noundef nonnull align 8 dereferenceable(88) %2, ptr noundef %1, ptr noundef %30, i1 noundef zeroext false) #14
  br label %31

_ZNK4llvm10SSAUpdater16HasValueForBlockEPNS_10BasicBlockE.exit: ; preds = %.lr.ph.i.i.i.i.i, %3
  tail call void @_ZN4llvm20DbgVariableIntrinsic15setKillLocationEv(ptr noundef nonnull align 8 dereferenceable(88) %2)
  br label %31

31:                                               ; preds = %_ZNK4llvm10SSAUpdater16HasValueForBlockEPNS_10BasicBlockE.exit, %.loopexit
  ret void
}